target datalayout = "e-m:e-p270:32:32-p271:32:32-p272:64:64-i64:64-i128:128-f80:128-n8:16:32:64-S128"
target triple = "x86_64-pc-linux-gnu"

@.str = private unnamed_addr constant [35 x i8] c"../openssl/test/ec_internal_test.c\00", align 1
@.str.14 = private unnamed_addr constant [20 x i8] c"b = BN_CTX_get(ctx)\00", align 1
@.str.34 = private unnamed_addr constant [24 x i8] c"Testing GF2m hardening\0A\00", align 1
@.str.35 = private unnamed_addr constant [10 x i8] c"BN_one(a)\00", align 1
@.str.36 = private unnamed_addr constant [10 x i8] c"BN_one(b)\00", align 1
@.str.37 = private unnamed_addr constant [21 x i8] c"BN_set_word(p, 0xf2)\00", align 1
@.str.38 = private unnamed_addr constant [47 x i8] c"group1 = EC_GROUP_new_curve_GF2m(p, a, b, ctx)\00", align 1
@.str.39 = private unnamed_addr constant [47 x i8] c"Zero constant term accepted in GF2m polynomial\00", align 1
@.str.40 = private unnamed_addr constant [21 x i8] c"BN_set_word(p, 0xf3)\00", align 1
@.str.41 = private unnamed_addr constant [47 x i8] c"group2 = EC_GROUP_new_curve_GF2m(p, a, b, ctx)\00", align 1
@.str.42 = private unnamed_addr constant [39 x i8] c"Hexanomial accepted as GF2m polynomial\00", align 1
@.str.43 = private unnamed_addr constant [21 x i8] c"BN_set_word(p, 0x71)\00", align 1
@.str.44 = private unnamed_addr constant [46 x i8] c"BN_set_bit(p, OPENSSL_ECC_MAX_FIELD_BITS + 1)\00", align 1
@.str.45 = private unnamed_addr constant [47 x i8] c"group3 = EC_GROUP_new_curve_GF2m(p, a, b, ctx)\00", align 1
@.str.46 = private unnamed_addr constant [37 x i8] c"GF2m polynomial degree > %d accepted\00", align 1

; Function Attrs: nounwind uwtable
define internal i32 @ec2m_field_sanity() #0 {
  %1 = alloca i32, align 4
  %2 = alloca ptr, align 8
  %3 = alloca ptr, align 8
  %4 = alloca ptr, align 8
  %5 = alloca ptr, align 8
  %6 = alloca ptr, align 8
  %7 = alloca ptr, align 8
  %8 = alloca ptr, align 8
  call void @llvm.lifetime.start.p0(i64 4, ptr %1) #4
  store i32 0, ptr %1, align 4, !tbaa !10
  call void @llvm.lifetime.start.p0(i64 8, ptr %2) #4
  %9 = call ptr @BN_CTX_new()
  store ptr %9, ptr %2, align 8, !tbaa !12
  call void @llvm.lifetime.start.p0(i64 8, ptr %3) #4
  call void @llvm.lifetime.start.p0(i64 8, ptr %4) #4
  call void @llvm.lifetime.start.p0(i64 8, ptr %5) #4
  call void @llvm.lifetime.start.p0(i64 8, ptr %6) #4
  store ptr null, ptr %6, align 8, !tbaa !14
  call void @llvm.lifetime.start.p0(i64 8, ptr %7) #4
  store ptr null, ptr %7, align 8, !tbaa !14
  call void @llvm.lifetime.start.p0(i64 8, ptr %8) #4
  store ptr null, ptr %8, align 8, !tbaa !14
  call void (ptr, i32, ptr, ...) @test_info(ptr noundef @.str, i32 noundef 167, ptr noundef @.str.34)
  %10 = load ptr, ptr %2, align 8, !tbaa !12
  call void @BN_CTX_start(ptr noundef %10)
  %11 = load ptr, ptr %2, align 8, !tbaa !12
  %12 = call ptr @BN_CTX_get(ptr noundef %11)
  store ptr %12, ptr %3, align 8, !tbaa !16
  %13 = load ptr, ptr %2, align 8, !tbaa !12
  %14 = call ptr @BN_CTX_get(ptr noundef %13)
  store ptr %14, ptr %4, align 8, !tbaa !16
  %15 = load ptr, ptr %2, align 8, !tbaa !12
  %16 = call ptr @BN_CTX_get(ptr noundef %15)
  store ptr %16, ptr %5, align 8, !tbaa !16
  %17 = call i32 @test_ptr(ptr noundef @.str, i32 noundef 172, ptr noundef @.str.14, ptr noundef %16)
  %18 = icmp ne i32 %17, 0
  br i1 %18, label %19, label %33

19:                                               ; preds = %0
  %20 = load ptr, ptr %4, align 8, !tbaa !16
  %21 = call i32 @BN_set_word(ptr noundef %20, i64 noundef 1)
  %22 = icmp ne i32 %21, 0
  %23 = zext i1 %22 to i32
  %24 = call i32 @test_true(ptr noundef @.str, i32 noundef 173, ptr noundef @.str.35, i32 noundef %23)
  %25 = icmp ne i32 %24, 0
  br i1 %25, label %26, label %33

26:                                               ; preds = %19
  %27 = load ptr, ptr %5, align 8, !tbaa !16
  %28 = call i32 @BN_set_word(ptr noundef %27, i64 noundef 1)
  %29 = icmp ne i32 %28, 0
  %30 = zext i1 %29 to i32
  %31 = call i32 @test_true(ptr noundef @.str, i32 noundef 174, ptr noundef @.str.36, i32 noundef %30)
  %32 = icmp ne i32 %31, 0
  br i1 %32, label %34, label %33

33:                                               ; preds = %26, %19, %0
  br label %104

34:                                               ; preds = %26
  %35 = load ptr, ptr %3, align 8, !tbaa !16
  %36 = call i32 @BN_set_word(ptr noundef %35, i64 noundef 242)
  %37 = icmp ne i32 %36, 0
  %38 = zext i1 %37 to i32
  %39 = call i32 @test_true(ptr noundef @.str, i32 noundef 178, ptr noundef @.str.37, i32 noundef %38)
  %40 = icmp ne i32 %39, 0
  br i1 %40, label %42, label %41

41:                                               ; preds = %34
  br label %104

42:                                               ; preds = %34
  %43 = load ptr, ptr %3, align 8, !tbaa !16
  %44 = load ptr, ptr %4, align 8, !tbaa !16
  %45 = load ptr, ptr %5, align 8, !tbaa !16
  %46 = load ptr, ptr %2, align 8, !tbaa !12
  %47 = call ptr @EC_GROUP_new_curve_GF2m(ptr noundef %43, ptr noundef %44, ptr noundef %45, ptr noundef %46)
  store ptr %47, ptr %6, align 8, !tbaa !14
  %48 = call i32 @test_ptr_null(ptr noundef @.str, i32 noundef 180, ptr noundef @.str.38, ptr noundef %47)
  %49 = icmp ne i32 %48, 0
  br i1 %49, label %51, label %50

50:                                               ; preds = %42
  call void (ptr, i32, ptr, ...) @test_error(ptr noundef @.str, i32 noundef 181, ptr noundef @.str.39)
  br label %51

51:                                               ; preds = %50, %42
  %52 = load ptr, ptr %3, align 8, !tbaa !16
  %53 = call i32 @BN_set_word(ptr noundef %52, i64 noundef 243)
  %54 = icmp ne i32 %53, 0
  %55 = zext i1 %54 to i32
  %56 = call i32 @test_true(ptr noundef @.str, i32 noundef 184, ptr noundef @.str.40, i32 noundef %55)
  %57 = icmp ne i32 %56, 0
  br i1 %57, label %59, label %58

58:                                               ; preds = %51
  br label %104

59:                                               ; preds = %51
  %60 = load ptr, ptr %3, align 8, !tbaa !16
  %61 = load ptr, ptr %4, align 8, !tbaa !16
  %62 = load ptr, ptr %5, align 8, !tbaa !16
  %63 = load ptr, ptr %2, align 8, !tbaa !12
  %64 = call ptr @EC_GROUP_new_curve_GF2m(ptr noundef %60, ptr noundef %61, ptr noundef %62, ptr noundef %63)
  store ptr %64, ptr %7, align 8, !tbaa !14
  %65 = call i32 @test_ptr_null(ptr noundef @.str, i32 noundef 186, ptr noundef @.str.41, ptr noundef %64)
  %66 = icmp ne i32 %65, 0
  br i1 %66, label %68, label %67

67:                                               ; preds = %59
  call void (ptr, i32, ptr, ...) @test_error(ptr noundef @.str, i32 noundef 187, ptr noundef @.str.42)
  br label %68

68:                                               ; preds = %67, %59
  %69 = load ptr, ptr %3, align 8, !tbaa !16
  %70 = call i32 @BN_set_word(ptr noundef %69, i64 noundef 113)
  %71 = icmp ne i32 %70, 0
  %72 = zext i1 %71 to i32
  %73 = call i32 @test_true(ptr noundef @.str, i32 noundef 190, ptr noundef @.str.43, i32 noundef %72)
  %74 = icmp ne i32 %73, 0
  br i1 %74, label %75, label %82

75:                                               ; preds = %68
  %76 = load ptr, ptr %3, align 8, !tbaa !16
  %77 = call i32 @BN_set_bit(ptr noundef %76, i32 noundef 662)
  %78 = icmp ne i32 %77, 0
  %79 = zext i1 %78 to i32
  %80 = call i32 @test_true(ptr noundef @.str, i32 noundef 191, ptr noundef @.str.44, i32 noundef %79)
  %81 = icmp ne i32 %80, 0
  br i1 %81, label %83, label %82

82:                                               ; preds = %75, %68
  br label %104

83:                                               ; preds = %75
  %84 = load ptr, ptr %3, align 8, !tbaa !16
  %85 = load ptr, ptr %4, align 8, !tbaa !16
  %86 = load ptr, ptr %5, align 8, !tbaa !16
  %87 = load ptr, ptr %2, align 8, !tbaa !12
  %88 = call ptr @EC_GROUP_new_curve_GF2m(ptr noundef %84, ptr noundef %85, ptr noundef %86, ptr noundef %87)
  store ptr %88, ptr %8, align 8, !tbaa !14
  %89 = call i32 @test_ptr_null(ptr noundef @.str, i32 noundef 193, ptr noundef @.str.45, ptr noundef %88)
  %90 = icmp ne i32 %89, 0
  br i1 %90, label %92, label %91

91:                                               ; preds = %83
  call void (ptr, i32, ptr, ...) @test_error(ptr noundef @.str, i32 noundef 195, ptr noundef @.str.46, i32 noundef 661)
  br label %92

92:                                               ; preds = %91, %83
  %93 = load ptr, ptr %6, align 8, !tbaa !14
  %94 = icmp eq ptr %93, null
  br i1 %94, label %95, label %101

95:                                               ; preds = %92
  %96 = load ptr, ptr %7, align 8, !tbaa !14
  %97 = icmp eq ptr %96, null
  br i1 %97, label %98, label %101

98:                                               ; preds = %95
  %99 = load ptr, ptr %8, align 8, !tbaa !14
  %100 = icmp eq ptr %99, null
  br label %101

101:                                              ; preds = %98, %95, %92
  %102 = phi i1 [ false, %95 ], [ false, %92 ], [ %100, %98 ]
  %103 = zext i1 %102 to i32
  store i32 %103, ptr %1, align 4, !tbaa !10
  br label %104

104:                                              ; preds = %101, %82, %58, %41, %33
  %105 = load ptr, ptr %6, align 8, !tbaa !14
  call void @EC_GROUP_free(ptr noundef %105)
  %106 = load ptr, ptr %7, align 8, !tbaa !14
  call void @EC_GROUP_free(ptr noundef %106)
  %107 = load ptr, ptr %8, align 8, !tbaa !14
  call void @EC_GROUP_free(ptr noundef %107)
  %108 = load ptr, ptr %2, align 8, !tbaa !12
  call void @BN_CTX_end(ptr noundef %108)
  %109 = load ptr, ptr %2, align 8, !tbaa !12
  call void @BN_CTX_free(ptr noundef %109)
  %110 = load i32, ptr %1, align 4, !tbaa !10
  call void @llvm.lifetime.end.p0(i64 8, ptr %8) #4
  call void @llvm.lifetime.end.p0(i64 8, ptr %7) #4
  call void @llvm.lifetime.end.p0(i64 8, ptr %6) #4
  call void @llvm.lifetime.end.p0(i64 8, ptr %5) #4
  call void @llvm.lifetime.end.p0(i64 8, ptr %4) #4
  call void @llvm.lifetime.end.p0(i64 8, ptr %3) #4
  call void @llvm.lifetime.end.p0(i64 8, ptr %2) #4
  call void @llvm.lifetime.end.p0(i64 4, ptr %1) #4
  ret i32 %110
}