; Function Attrs: nounwind uwtable
define internal range(i32 0, 2) i32 @ec2m_field_sanity() #0 {
  %1 = tail call ptr @BN_CTX_new() #4
  tail call void (ptr, i32, ptr, ...) @test_info(ptr noundef nonnull @.str, i32 noundef 167, ptr noundef nonnull @.str.34) #4
  tail call void @BN_CTX_start(ptr noundef %1) #4
  %2 = tail call ptr @BN_CTX_get(ptr noundef %1) #4
  %3 = tail call ptr @BN_CTX_get(ptr noundef %1) #4
  %4 = tail call ptr @BN_CTX_get(ptr noundef %1) #4
  %5 = tail call i32 @test_ptr(ptr noundef nonnull @.str, i32 noundef 172, ptr noundef nonnull @.str.14, ptr noundef %4) #4
  %.not = icmp eq i32 %5, 0
  br i1 %.not, label %53, label %6

6:                                                ; preds = %0
  %7 = tail call i32 @BN_set_word(ptr noundef %3, i64 noundef 1) #4
  %8 = icmp ne i32 %7, 0
  %9 = zext i1 %8 to i32
  %10 = tail call i32 @test_true(ptr noundef nonnull @.str, i32 noundef 173, ptr noundef nonnull @.str.35, i32 noundef %9) #4
  %.not34 = icmp eq i32 %10, 0
  br i1 %.not34, label %53, label %11

11:                                               ; preds = %6
  %12 = tail call i32 @BN_set_word(ptr noundef %4, i64 noundef 1) #4
  %13 = icmp ne i32 %12, 0
  %14 = zext i1 %13 to i32
  %15 = tail call i32 @test_true(ptr noundef nonnull @.str, i32 noundef 174, ptr noundef nonnull @.str.36, i32 noundef %14) #4
  %.not35 = icmp eq i32 %15, 0
  br i1 %.not35, label %53, label %16

16:                                               ; preds = %11
  %17 = tail call i32 @BN_set_word(ptr noundef %2, i64 noundef 242) #4
  %18 = icmp ne i32 %17, 0
  %19 = zext i1 %18 to i32
  %20 = tail call i32 @test_true(ptr noundef nonnull @.str, i32 noundef 178, ptr noundef nonnull @.str.37, i32 noundef %19) #4
  %.not36 = icmp eq i32 %20, 0
  br i1 %.not36, label %53, label %21

21:                                               ; preds = %16
  %22 = tail call ptr @EC_GROUP_new_curve_GF2m(ptr noundef %2, ptr noundef %3, ptr noundef %4, ptr noundef %1) #4
  %23 = tail call i32 @test_ptr_null(ptr noundef nonnull @.str, i32 noundef 180, ptr noundef nonnull @.str.38, ptr noundef %22) #4
  %.not37 = icmp eq i32 %23, 0
  br i1 %.not37, label %24, label %25

24:                                               ; preds = %21
  tail call void (ptr, i32, ptr, ...) @test_error(ptr noundef nonnull @.str, i32 noundef 181, ptr noundef nonnull @.str.39) #4
  br label %25

25:                                               ; preds = %24, %21
  %26 = tail call i32 @BN_set_word(ptr noundef %2, i64 noundef 243) #4
  %27 = icmp ne i32 %26, 0
  %28 = zext i1 %27 to i32
  %29 = tail call i32 @test_true(ptr noundef nonnull @.str, i32 noundef 184, ptr noundef nonnull @.str.40, i32 noundef %28) #4
  %.not38 = icmp eq i32 %29, 0
  br i1 %.not38, label %53, label %30

30:                                               ; preds = %25
  %31 = tail call ptr @EC_GROUP_new_curve_GF2m(ptr noundef %2, ptr noundef %3, ptr noundef %4, ptr noundef %1) #4
  %32 = tail call i32 @test_ptr_null(ptr noundef nonnull @.str, i32 noundef 186, ptr noundef nonnull @.str.41, ptr noundef %31) #4
  %.not39 = icmp eq i32 %32, 0
  br i1 %.not39, label %33, label %34

33:                                               ; preds = %30
  tail call void (ptr, i32, ptr, ...) @test_error(ptr noundef nonnull @.str, i32 noundef 187, ptr noundef nonnull @.str.42) #4
  br label %34

34:                                               ; preds = %33, %30
  %35 = tail call i32 @BN_set_word(ptr noundef %2, i64 noundef 113) #4
  %36 = icmp ne i32 %35, 0
  %37 = zext i1 %36 to i32
  %38 = tail call i32 @test_true(ptr noundef nonnull @.str, i32 noundef 190, ptr noundef nonnull @.str.43, i32 noundef %37) #4
  %.not40 = icmp eq i32 %38, 0
  br i1 %.not40, label %53, label %39

39:                                               ; preds = %34
  %40 = tail call i32 @BN_set_bit(ptr noundef %2, i32 noundef 662) #4
  %41 = icmp ne i32 %40, 0
  %42 = zext i1 %41 to i32
  %43 = tail call i32 @test_true(ptr noundef nonnull @.str, i32 noundef 191, ptr noundef nonnull @.str.44, i32 noundef %42) #4
  %.not41 = icmp eq i32 %43, 0
  br i1 %.not41, label %53, label %44

44:                                               ; preds = %39
  %45 = tail call ptr @EC_GROUP_new_curve_GF2m(ptr noundef %2, ptr noundef %3, ptr noundef %4, ptr noundef %1) #4
  %46 = tail call i32 @test_ptr_null(ptr noundef nonnull @.str, i32 noundef 193, ptr noundef nonnull @.str.45, ptr noundef %45) #4
  %.not42 = icmp eq i32 %46, 0
  br i1 %.not42, label %47, label %48

47:                                               ; preds = %44
  tail call void (ptr, i32, ptr, ...) @test_error(ptr noundef nonnull @.str, i32 noundef 195, ptr noundef nonnull @.str.46, i32 noundef 661) #4
  br label %48

48:                                               ; preds = %47, %44
  %49 = icmp eq ptr %22, null
  %50 = icmp eq ptr %31, null
  %or.cond = and i1 %49, %50
  %51 = icmp eq ptr %45, null
  %narrow = and i1 %or.cond, %51
  %52 = zext i1 %narrow to i32
  br label %53

53:                                               ; preds = %34, %39, %25, %16, %0, %6, %11, %48
  %.033 = phi i32 [ %52, %48 ], [ 0, %39 ], [ 0, %34 ], [ 0, %25 ], [ 0, %16 ], [ 0, %11 ], [ 0, %6 ], [ 0, %0 ]
  %.032 = phi ptr [ %22, %48 ], [ %22, %39 ], [ %22, %34 ], [ %22, %25 ], [ null, %16 ], [ null, %11 ], [ null, %6 ], [ null, %0 ]
  %.031 = phi ptr [ %31, %48 ], [ %31, %39 ], [ %31, %34 ], [ null, %25 ], [ null, %16 ], [ null, %11 ], [ null, %6 ], [ null, %0 ]
  %.0 = phi ptr [ %45, %48 ], [ null, %39 ], [ null, %34 ], [ null, %25 ], [ null, %16 ], [ null, %11 ], [ null, %6 ], [ null, %0 ]
  tail call void @EC_GROUP_free(ptr noundef %.032) #4
  tail call void @EC_GROUP_free(ptr noundef %.031) #4
  tail call void @EC_GROUP_free(ptr noundef %.0) #4
  tail call void @BN_CTX_end(ptr noundef %1) #4
  tail call void @BN_CTX_free(ptr noundef %1) #4
  ret i32 %.033
}